; Function Attrs: mustprogress nofree norecurse nosync nounwind willreturn memory(argmem: read) uwtable
define internal noundef ptr @ecdsa_sigalg_settable_ctx_params(ptr noundef readonly captures(address_is_null) %0, ptr readnone captures(none) %1) #2 {
  %.not = icmp eq ptr %0, null
  br i1 %.not, label %7, label %3

3:                                                ; preds = %2
  %4 = getelementptr inbounds nuw i8, ptr %0, i64 24
  %5 = load i32, ptr %4, align 8, !tbaa !17
  %6 = icmp eq i32 %5, 32768
  br i1 %6, label %8, label %7

7:                                                ; preds = %3, %2
  br label %8

8:                                                ; preds = %3, %7
  %.0 = phi ptr [ null, %7 ], [ @settable_sigalg_ctx_params, %3 ]
  ret ptr %.0
}